; Function Attrs: nounwind uwtable
define internal range(i32 -5, 1) i32 @send_time_test_data(ptr noundef initializes((24, 32), (36, 40), (44, 56), (60, 72)) %0) #0 {
  %2 = getelementptr inbounds nuw i8, ptr %0, i64 24
  %3 = getelementptr inbounds nuw i8, ptr %0, i64 16
  store i32 1, ptr %2, align 1, !tbaa !36
  %4 = getelementptr inbounds nuw i8, ptr %0, i64 28
  store i32 -1341392178, ptr %4, align 1, !tbaa !36
  %5 = getelementptr inbounds nuw i8, ptr %0, i64 32
  %6 = getelementptr inbounds nuw i8, ptr %0, i64 36
  store i32 542330189, ptr %6, align 1, !tbaa !36
  %7 = getelementptr inbounds nuw i8, ptr %0, i64 40
  %8 = getelementptr inbounds nuw i8, ptr %0, i64 44
  %9 = getelementptr inbounds nuw i8, ptr %0, i64 66120
  %10 = load i32, ptr %9, align 8, !tbaa !37
  %11 = add nsw i32 %10, 1
  store i32 %11, ptr %9, align 8, !tbaa !37
  store i32 %10, ptr %8, align 1, !tbaa !36
  %12 = getelementptr inbounds nuw i8, ptr %0, i64 48
  store i64 0, ptr %12, align 1, !tbaa !36
  %13 = getelementptr inbounds nuw i8, ptr %0, i64 56
  %14 = getelementptr inbounds nuw i8, ptr %0, i64 60
  store i16 24, ptr %14, align 1, !tbaa !36
  %15 = getelementptr inbounds nuw i8, ptr %0, i64 62
  store i16 3, ptr %15, align 1, !tbaa !36
  %16 = getelementptr inbounds nuw i8, ptr %0, i64 64
  store i32 15790320, ptr %16, align 1, !tbaa !36
  %17 = getelementptr inbounds nuw i8, ptr %0, i64 68
  store i32 262155, ptr %17, align 1, !tbaa !36
  %18 = getelementptr inbounds nuw i8, ptr %0, i64 72
  store ptr %18, ptr %3, align 8, !tbaa !38
  store i32 32, ptr %5, align 1, !tbaa !36
  store i32 4, ptr %7, align 1, !tbaa !36
  store i32 2, ptr %13, align 1, !tbaa !36
  %19 = load ptr, ptr %0, align 8, !tbaa !31
  %20 = tail call i32 @ffurl_write2(ptr noundef %19, ptr noundef nonnull %2, i32 noundef range(i32 0, -7) 48) #7
  %.not.i = icmp eq i32 %20, 48
  br i1 %.not.i, label %send_command_packet.exit, label %21

21:                                               ; preds = %1
  %22 = load ptr, ptr %0, align 8, !tbaa !31
  %23 = icmp slt i32 %20, 0
  br i1 %23, label %24, label %27

24:                                               ; preds = %21
  %25 = sub nsw i32 0, %20
  %26 = tail call ptr @strerror(i32 noundef %25) #7
  br label %27

27:                                               ; preds = %24, %21
  %28 = phi ptr [ %26, %24 ], [ @.str.11, %21 ]
  tail call void (ptr, i32, ptr, ...) @av_log(ptr noundef %22, i32 noundef 16, ptr noundef nonnull @.str.19, i32 noundef 48, i32 noundef %20, ptr noundef %28) #7
  br label %send_command_packet.exit

send_command_packet.exit:                         ; preds = %1, %27
  %.0.i = phi i32 [ -5, %27 ], [ 0, %1 ]
  ret i32 %.0.i
}